target datalayout = "e-m:e-p270:32:32-p271:32:32-p272:64:64-i64:64-i128:128-f80:128-n8:16:32:64-S128"
target triple = "x86_64-pc-linux-gnu"

%"class.llvm::SmallVectorBase" = type { ptr, i64, i64 }

@__const._ZN4llvm3sys4pathL13getEnvTempDirEv.EnvironmentVariables = private unnamed_addr constant [4 x ptr] [ptr @.str.22, ptr @.str.23, ptr @.str.24, ptr @.str.25], align 16
@.str.26 = private unnamed_addr constant [5 x i8] c"/tmp\00", align 1

; Function Attrs: mustprogress nounwind uwtable
define linkonce_odr hidden void @_ZN4llvm23SmallVectorTemplateBaseIcLb1EE13destroy_rangeEPcS2_(ptr noundef %0, ptr noundef %1) #0 comdat align 2 {
  %3 = alloca ptr, align 8
  %4 = alloca ptr, align 8
  store ptr %0, ptr %3, align 8
  store ptr %1, ptr %4, align 8
  ret void
}

; Function Attrs: mustprogress nounwind uwtable
define linkonce_odr hidden noundef ptr @_ZN4llvm25SmallVectorTemplateCommonIcvE3endEv(ptr noundef nonnull align 8 dereferenceable(24) %0) #0 comdat align 2 {
  %2 = alloca ptr, align 8
  store ptr %0, ptr %2, align 8
  %3 = load ptr, ptr %2, align 8
  %4 = call noundef ptr @_ZN4llvm25SmallVectorTemplateCommonIcvE5beginEv(ptr noundef nonnull align 8 dereferenceable(24) %3)
  %5 = call noundef i64 @_ZNK4llvm15SmallVectorBaseImE4sizeEv(ptr noundef nonnull align 8 dereferenceable(24) %3)
  %6 = getelementptr inbounds i8, ptr %4, i64 %5
  ret ptr %6
}

; Function Attrs: mustprogress nounwind uwtable
define linkonce_odr hidden noundef ptr @_ZN4llvm25SmallVectorTemplateCommonIcvE5beginEv(ptr noundef nonnull align 8 dereferenceable(24) %0) #0 comdat align 2 {
  %2 = alloca ptr, align 8
  store ptr %0, ptr %2, align 8
  %3 = load ptr, ptr %2, align 8
  %4 = getelementptr inbounds nuw %"class.llvm::SmallVectorBase", ptr %3, i32 0, i32 0
  %5 = load ptr, ptr %4, align 8
  ret ptr %5
}

; Function Attrs: mustprogress nounwind uwtable
define internal noundef ptr @_ZN4llvm3sys4pathL17getDefaultTempDirEb(i1 noundef zeroext %0) #0 {
  %2 = alloca i8, align 1
  %3 = zext i1 %0 to i8
  store i8 %3, ptr %2, align 1
  ret ptr @.str.26
}

; Function Attrs: mustprogress nounwind uwtable
define internal noundef zeroext i1 @_ZN4llvm3sys4pathL16getDarwinConfDirEbRNS_15SmallVectorImplIcEE(i1 noundef zeroext %0, ptr noundef nonnull align 8 dereferenceable(24) %1) #0 {
  %3 = alloca i8, align 1
  %4 = alloca ptr, align 8
  %5 = zext i1 %0 to i8
  store i8 %5, ptr %3, align 1
  store ptr %1, ptr %4, align 8
  ret i1 false
}

; Function Attrs: mustprogress nounwind uwtable
define internal noundef ptr @_ZN4llvm3sys4pathL13getEnvTempDirEv() #0 {
  %1 = alloca ptr, align 8
  %2 = alloca [4 x ptr], align 16
  %3 = alloca ptr, align 8
  %4 = alloca ptr, align 8
  %5 = alloca ptr, align 8
  %6 = alloca ptr, align 8
  %7 = alloca ptr, align 8
  call void @llvm.memcpy.p0.p0.i64(ptr align 16 %2, ptr align 16 @__const._ZN4llvm3sys4pathL13getEnvTempDirEv.EnvironmentVariables, i64 32, i1 false)
  store ptr %2, ptr %3, align 8
  %8 = load ptr, ptr %3, align 8
  %9 = getelementptr inbounds [4 x ptr], ptr %8, i64 0, i64 0
  store ptr %9, ptr %4, align 8
  %10 = load ptr, ptr %3, align 8
  %11 = getelementptr inbounds [4 x ptr], ptr %10, i64 0, i64 0
  %12 = getelementptr inbounds ptr, ptr %11, i64 4
  store ptr %12, ptr %5, align 8
  br label %13

13:                                               ; preds = %27, %0
  %14 = load ptr, ptr %4, align 8
  %15 = load ptr, ptr %5, align 8
  %16 = icmp ne ptr %14, %15
  br i1 %16, label %17, label %30

17:                                               ; preds = %13
  %18 = load ptr, ptr %4, align 8
  %19 = load ptr, ptr %18, align 8
  store ptr %19, ptr %6, align 8
  %20 = load ptr, ptr %6, align 8
  %21 = call ptr @getenv(ptr noundef %20) #9
  store ptr %21, ptr %7, align 8
  %22 = load ptr, ptr %7, align 8
  %23 = icmp ne ptr %22, null
  br i1 %23, label %24, label %26

24:                                               ; preds = %17
  %25 = load ptr, ptr %7, align 8
  store ptr %25, ptr %1, align 8
  br label %31

26:                                               ; preds = %17
  br label %27

27:                                               ; preds = %26
  %28 = load ptr, ptr %4, align 8
  %29 = getelementptr inbounds ptr, ptr %28, i32 1
  store ptr %29, ptr %4, align 8
  br label %13

30:                                               ; preds = %13
  store ptr null, ptr %1, align 8
  br label %31

31:                                               ; preds = %30, %24
  %32 = load ptr, ptr %1, align 8
  ret ptr %32
}

; Function Attrs: mustprogress nounwind uwtable
define linkonce_odr hidden void @_ZN4llvm15SmallVectorImplIcE5clearEv(ptr noundef nonnull align 8 dereferenceable(24) %0) #0 comdat align 2 {
  %2 = alloca ptr, align 8
  store ptr %0, ptr %2, align 8
  %3 = load ptr, ptr %2, align 8
  %4 = call noundef ptr @_ZN4llvm25SmallVectorTemplateCommonIcvE5beginEv(ptr noundef nonnull align 8 dereferenceable(24) %3)
  %5 = call noundef ptr @_ZN4llvm25SmallVectorTemplateCommonIcvE3endEv(ptr noundef nonnull align 8 dereferenceable(24) %3)
  call void @_ZN4llvm23SmallVectorTemplateBaseIcLb1EE13destroy_rangeEPcS2_(ptr noundef %4, ptr noundef %5)
  %6 = getelementptr inbounds nuw %"class.llvm::SmallVectorBase", ptr %3, i32 0, i32 1
  store i64 0, ptr %6, align 8
  ret void
}

; Function Attrs: mustprogress nounwind uwtable
define dso_local void @_ZN4llvm3sys4path21system_temp_directoryEbRNS_15SmallVectorImplIcEE(i1 noundef zeroext %0, ptr noundef nonnull align 8 dereferenceable(24) %1) #0 {
  %3 = alloca i8, align 1
  %4 = alloca ptr, align 8
  %5 = alloca ptr, align 8
  %6 = alloca ptr, align 8
  %7 = zext i1 %0 to i8
  store i8 %7, ptr %3, align 1
  store ptr %1, ptr %4, align 8
  %8 = load ptr, ptr %4, align 8
  call void @_ZN4llvm15SmallVectorImplIcE5clearEv(ptr noundef nonnull align 8 dereferenceable(24) %8)
  %9 = load i8, ptr %3, align 1
  %10 = trunc i8 %9 to i1
  br i1 %10, label %11, label %23

11:                                               ; preds = %2
  %12 = call noundef ptr @_ZN4llvm3sys4pathL13getEnvTempDirEv()
  store ptr %12, ptr %5, align 8
  %13 = load ptr, ptr %5, align 8
  %14 = icmp ne ptr %13, null
  br i1 %14, label %15, label %22

15:                                               ; preds = %11
  %16 = load ptr, ptr %4, align 8
  %17 = load ptr, ptr %5, align 8
  %18 = load ptr, ptr %5, align 8
  %19 = load ptr, ptr %5, align 8
  %20 = call i64 @strlen(ptr noundef %19) #12
  %21 = getelementptr inbounds i8, ptr %18, i64 %20
  call void @_ZN4llvm15SmallVectorImplIcE6appendIPKcvEEvT_S5_(ptr noundef nonnull align 8 dereferenceable(24) %16, ptr noundef %17, ptr noundef %21)
  br label %39

22:                                               ; preds = %11
  br label %23

23:                                               ; preds = %22, %2
  %24 = load i8, ptr %3, align 1
  %25 = trunc i8 %24 to i1
  %26 = load ptr, ptr %4, align 8
  %27 = call noundef zeroext i1 @_ZN4llvm3sys4pathL16getDarwinConfDirEbRNS_15SmallVectorImplIcEE(i1 noundef zeroext %25, ptr noundef nonnull align 8 dereferenceable(24) %26)
  br i1 %27, label %28, label %29

28:                                               ; preds = %23
  br label %39

29:                                               ; preds = %23
  %30 = load i8, ptr %3, align 1
  %31 = trunc i8 %30 to i1
  %32 = call noundef ptr @_ZN4llvm3sys4pathL17getDefaultTempDirEb(i1 noundef zeroext %31)
  store ptr %32, ptr %6, align 8
  %33 = load ptr, ptr %4, align 8
  %34 = load ptr, ptr %6, align 8
  %35 = load ptr, ptr %6, align 8
  %36 = load ptr, ptr %6, align 8
  %37 = call i64 @strlen(ptr noundef %36) #12
  %38 = getelementptr inbounds i8, ptr %35, i64 %37
  call void @_ZN4llvm15SmallVectorImplIcE6appendIPKcvEEvT_S5_(ptr noundef nonnull align 8 dereferenceable(24) %33, ptr noundef %34, ptr noundef %38)
  br label %39

39:                                               ; preds = %29, %28, %15
  ret void
}