; Function Attrs: mustprogress nounwind uwtable
define dso_local void @_ZN4llvm3sys4path21system_temp_directoryEbRNS_15SmallVectorImplIcEE(i1 noundef zeroext %0, ptr noundef nonnull align 8 dereferenceable(24) %1) local_unnamed_addr #0 {
  %3 = tail call noundef i64 @_ZNK4llvm15SmallVectorBaseImE4sizeEv(ptr noundef nonnull align 8 dereferenceable(24) %1) #30
  %4 = getelementptr inbounds nuw i8, ptr %1, i64 8
  store i64 0, ptr %4, align 8
  br i1 %0, label %.preheader, label %10

.preheader:                                       ; preds = %2, %.preheader
  %.010.idx13.i = phi i64 [ %.010.add.i, %.preheader ], [ 0, %2 ]
  %.010.ptr.i = getelementptr inbounds i8, ptr @__const._ZN4llvm3sys4pathL13getEnvTempDirEv.EnvironmentVariables, i64 %.010.idx13.i
  %5 = load ptr, ptr %.010.ptr.i, align 8
  %6 = tail call ptr @getenv(ptr noundef %5) #30
  %.not12.i = icmp ne ptr %6, null
  %.010.add.i = add nuw nsw i64 %.010.idx13.i, 8
  %.not.i = icmp eq i64 %.010.add.i, 32
  %or.cond.i = select i1 %.not12.i, i1 true, i1 %.not.i
  br i1 %or.cond.i, label %_ZN4llvm3sys4pathL13getEnvTempDirEv.exit, label %.preheader

_ZN4llvm3sys4pathL13getEnvTempDirEv.exit:         ; preds = %.preheader
  %.not = icmp eq ptr %6, null
  br i1 %.not, label %10, label %7

7:                                                ; preds = %_ZN4llvm3sys4pathL13getEnvTempDirEv.exit
  %8 = tail call i64 @strlen(ptr noundef nonnull dereferenceable(1) %6) #29
  %9 = getelementptr inbounds i8, ptr %6, i64 %8
  tail call void @_ZN4llvm15SmallVectorImplIcE6appendIPKcvEEvT_S5_(ptr noundef nonnull align 8 dereferenceable(24) %1, ptr noundef nonnull %6, ptr noundef nonnull %9)
  br label %11

10:                                               ; preds = %_ZN4llvm3sys4pathL13getEnvTempDirEv.exit, %2
  tail call void @_ZN4llvm15SmallVectorImplIcE6appendIPKcvEEvT_S5_(ptr noundef nonnull align 8 dereferenceable(24) %1, ptr noundef nonnull @.str.26, ptr noundef nonnull getelementptr inbounds (i8, ptr @.str.26, i64 4))
  br label %11

11:                                               ; preds = %10, %7
  ret void
}